target datalayout = "e-m:e-p270:32:32-p271:32:32-p272:64:64-i64:64-i128:128-f80:128-n8:16:32:64-S128"
target triple = "x86_64-pc-linux-gnu"

%struct.ddTableDealPBN = type { [80 x i8] }
%struct.ddTableDeal = type { [4 x [4 x i32]] }

; Function Attrs: mustprogress uwtable
define i32 @CalcPar(ptr noundef byval(%struct.ddTableDeal) align 8 %0, i32 noundef %1, ptr noundef %2, ptr noundef %3) #0 {
  %5 = alloca i32, align 4
  %6 = alloca i32, align 4
  %7 = alloca ptr, align 8
  %8 = alloca ptr, align 8
  %9 = alloca i32, align 4
  %10 = alloca %struct.ddTableDeal, align 8
  store i32 %1, ptr %6, align 4
  store ptr %2, ptr %7, align 8
  store ptr %3, ptr %8, align 8
  call void @llvm.memcpy.p0.p0.i64(ptr align 4 %10, ptr align 8 %0, i64 64, i1 false)
  %11 = load ptr, ptr %7, align 8
  %12 = call i32 @CalcDDtable(ptr noundef byval(%struct.ddTableDeal) align 8 %10, ptr noundef %11)
  store i32 %12, ptr %9, align 4
  %13 = load i32, ptr %9, align 4
  %14 = icmp ne i32 %13, 1
  br i1 %14, label %15, label %17

15:                                               ; preds = %4
  %16 = load i32, ptr %9, align 4
  store i32 %16, ptr %5, align 4
  br label %23

17:                                               ; preds = %4
  %18 = load ptr, ptr %7, align 8
  %19 = load ptr, ptr %8, align 8
  %20 = load i32, ptr %6, align 4
  %21 = call i32 @Par(ptr noundef %18, ptr noundef %19, i32 noundef %20)
  store i32 %21, ptr %9, align 4
  %22 = load i32, ptr %9, align 4
  store i32 %22, ptr %5, align 4
  br label %23

23:                                               ; preds = %17, %15
  %24 = load i32, ptr %5, align 4
  ret i32 %24
}

; Function Attrs: mustprogress uwtable
define i32 @CalcParPBN(ptr noundef byval(%struct.ddTableDealPBN) align 8 %0, ptr noundef %1, i32 noundef %2, ptr noundef %3) #0 {
  %5 = alloca i32, align 4
  %6 = alloca ptr, align 8
  %7 = alloca i32, align 4
  %8 = alloca ptr, align 8
  %9 = alloca i32, align 4
  %10 = alloca %struct.ddTableDeal, align 4
  %11 = alloca %struct.ddTableDeal, align 8
  store ptr %1, ptr %6, align 8
  store i32 %2, ptr %7, align 4
  store ptr %3, ptr %8, align 8
  %12 = getelementptr inbounds nuw %struct.ddTableDealPBN, ptr %0, i32 0, i32 0
  %13 = getelementptr inbounds [80 x i8], ptr %12, i64 0, i64 0
  %14 = getelementptr inbounds nuw %struct.ddTableDeal, ptr %10, i32 0, i32 0
  %15 = getelementptr inbounds [4 x [4 x i32]], ptr %14, i64 0, i64 0
  %16 = call noundef i32 @_Z14ConvertFromPBNPKcPA4_j(ptr noundef %13, ptr noundef %15)
  %17 = icmp ne i32 %16, 1
  br i1 %17, label %18, label %19

18:                                               ; preds = %4
  store i32 -99, ptr %5, align 4
  br label %25

19:                                               ; preds = %4
  call void @llvm.memcpy.p0.p0.i64(ptr align 4 %11, ptr align 4 %10, i64 64, i1 false)
  %20 = load i32, ptr %7, align 4
  %21 = load ptr, ptr %6, align 8
  %22 = load ptr, ptr %8, align 8
  %23 = call i32 @CalcPar(ptr noundef byval(%struct.ddTableDeal) align 8 %11, i32 noundef %20, ptr noundef %21, ptr noundef %22)
  store i32 %23, ptr %9, align 4
  %24 = load i32, ptr %9, align 4
  store i32 %24, ptr %5, align 4
  br label %25

25:                                               ; preds = %19, %18
  %26 = load i32, ptr %5, align 4
  ret i32 %26
}