; Function Attrs: mustprogress uwtable
define i32 @CalcParPBN(ptr noundef byval(%struct.ddTableDealPBN) align 8 %0, ptr noundef %1, i32 noundef %2, ptr noundef %3) local_unnamed_addr #0 {
  %5 = alloca %struct.ddTableDeal, align 8
  %6 = call noundef i32 @_Z14ConvertFromPBNPKcPA4_j(ptr noundef nonnull %0, ptr noundef nonnull %5)
  %.not = icmp eq i32 %6, 1
  br i1 %.not, label %7, label %CalcPar.exit

7:                                                ; preds = %4
  %8 = call i32 @CalcDDtable(ptr noundef nonnull byval(%struct.ddTableDeal) align 8 %5, ptr noundef %1)
  %.not.i = icmp eq i32 %8, 1
  br i1 %.not.i, label %9, label %CalcPar.exit

9:                                                ; preds = %7
  %10 = call i32 @Par(ptr noundef %1, ptr noundef %3, i32 noundef %2)
  br label %CalcPar.exit

CalcPar.exit:                                     ; preds = %9, %7, %4
  %.0 = phi i32 [ -99, %4 ], [ %10, %9 ], [ %8, %7 ]
  ret i32 %.0
}